; Function Attrs: nounwind uwtable
define dso_local void @trace2_exec_result_fl(ptr noundef %0, i32 noundef %1, i32 noundef %2, i32 noundef %3) local_unnamed_addr #0 {
  %.b = load i1, ptr @trace2_enabled, align 4
  br i1 %.b, label %5, label %.loopexit

5:                                                ; preds = %4
  %6 = tail call i64 @getnanotime() #11
  %7 = udiv i64 %6, 1000
  %8 = tail call i64 @tr2tls_absolute_elapsed(i64 noundef %7) #11
  br label %9

9:                                                ; preds = %5, %16
  %indvars.iv = phi i64 [ 0, %5 ], [ %indvars.iv.next, %16 ]
  %.017 = phi ptr [ @tr2_tgt_normal, %5 ], [ %18, %16 ]
  %10 = load ptr, ptr %.017, align 8, !tbaa !14
  %11 = tail call i32 @tr2_dst_trace_want(ptr noundef %10) #11
  %.not14 = icmp eq i32 %11, 0
  br i1 %.not14, label %16, label %12

12:                                               ; preds = %9
  %13 = getelementptr inbounds nuw i8, ptr %.017, i64 160
  %14 = load ptr, ptr %13, align 8, !tbaa !66
  %.not15 = icmp eq ptr %14, null
  br i1 %.not15, label %16, label %15

15:                                               ; preds = %12
  tail call void %14(ptr noundef %0, i32 noundef %1, i64 noundef %8, i32 noundef %2, i32 noundef %3) #11
  br label %16

16:                                               ; preds = %9, %15, %12
  %indvars.iv.next = add nuw nsw i64 %indvars.iv, 1
  %17 = getelementptr inbounds nuw [4 x ptr], ptr @tr2_tgt_builtins, i64 0, i64 %indvars.iv.next
  %18 = load ptr, ptr %17, align 8, !tbaa !10
  %.not = icmp eq i64 %indvars.iv.next, 3
  br i1 %.not, label %.loopexit, label %9, !llvm.loop !67

.loopexit:                                        ; preds = %16, %4
  ret void
}